; Function Attrs: mustprogress uwtable
define i64 @_ZN2cv16PyRotationWarper4warpERKNS_11_InputArrayES3_S3_iiRKNS_12_OutputArrayE(ptr noundef nonnull readonly align 8 captures(none) dereferenceable(16) %0, ptr noundef nonnull align 8 dereferenceable(24) %1, ptr noundef nonnull align 8 dereferenceable(24) %2, ptr noundef nonnull align 8 dereferenceable(24) %3, i32 noundef %4, i32 noundef %5, ptr noundef nonnull align 8 dereferenceable(24) %6) local_unnamed_addr #3 align 2 personality ptr @__gxx_personality_v0 {
  %8 = alloca %"class.std::__cxx11::basic_string", align 8
  %9 = alloca %"class.std::allocator", align 1
  %10 = load ptr, ptr %0, align 8, !tbaa !147
  %11 = icmp eq ptr %10, null
  br i1 %11, label %12, label %22

12:                                               ; preds = %7
  call void @llvm.lifetime.start.p0(i64 32, ptr nonnull %8) #22
  call void @llvm.lifetime.start.p0(i64 1, ptr nonnull %9) #22
  call void @_ZNSt7__cxx1112basic_stringIcSt11char_traitsIcESaIcEEC2EPKcRKS3_(ptr noundef nonnull align 8 dereferenceable(32) %8, ptr noundef nonnull @.str.18, ptr noundef nonnull align 1 dereferenceable(1) %9)
  invoke void @_ZN2cv5errorEiRKNSt7__cxx1112basic_stringIcSt11char_traitsIcESaIcEEEPKcS9_i(i32 noundef -2, ptr noundef nonnull align 8 dereferenceable(32) %8, ptr noundef nonnull @__func__._ZN2cv16PyRotationWarper4warpERKNS_11_InputArrayES3_S3_iiRKNS_12_OutputArrayE, ptr noundef nonnull @.str.17, i32 noundef 111) #24
          to label %13 unwind label %14

13:                                               ; preds = %12
  unreachable

14:                                               ; preds = %12
  %15 = landingpad { ptr, i32 }
          cleanup
  %16 = load ptr, ptr %8, align 8, !tbaa !150
  %17 = getelementptr inbounds nuw i8, ptr %8, i64 16
  %18 = icmp eq ptr %16, %17
  br i1 %18, label %_ZNKSt7__cxx1112basic_stringIcSt11char_traitsIcESaIcEE11_M_is_localEv.exit.thread.i.i, label %_ZNKSt7__cxx1112basic_stringIcSt11char_traitsIcESaIcEE11_M_is_localEv.exit.i.i

_ZNKSt7__cxx1112basic_stringIcSt11char_traitsIcESaIcEE11_M_is_localEv.exit.thread.i.i: ; preds = %14
  %19 = getelementptr inbounds nuw i8, ptr %8, i64 8
  %20 = load i64, ptr %19, align 8, !tbaa !155
  %21 = icmp ult i64 %20, 16
  call void @llvm.assume(i1 %21)
  br label %_ZNSt7__cxx1112basic_stringIcSt11char_traitsIcESaIcEED2Ev.exit

_ZNKSt7__cxx1112basic_stringIcSt11char_traitsIcESaIcEE11_M_is_localEv.exit.i.i: ; preds = %14
  call void @_ZdlPv(ptr noundef %16) #25
  br label %_ZNSt7__cxx1112basic_stringIcSt11char_traitsIcESaIcEED2Ev.exit

_ZNSt7__cxx1112basic_stringIcSt11char_traitsIcESaIcEED2Ev.exit: ; preds = %_ZNKSt7__cxx1112basic_stringIcSt11char_traitsIcESaIcEE11_M_is_localEv.exit.i.i, %_ZNKSt7__cxx1112basic_stringIcSt11char_traitsIcESaIcEE11_M_is_localEv.exit.thread.i.i
  call void @llvm.lifetime.end.p0(i64 1, ptr nonnull %9) #22
  call void @llvm.lifetime.end.p0(i64 32, ptr nonnull %8) #22
  resume { ptr, i32 } %15

22:                                               ; preds = %7
  %23 = load ptr, ptr %10, align 8, !tbaa !14
  %24 = getelementptr inbounds nuw i8, ptr %23, i64 40
  %25 = load ptr, ptr %24, align 8
  %26 = tail call i64 %25(ptr noundef nonnull align 8 dereferenceable(8) %10, ptr noundef nonnull align 8 dereferenceable(24) %1, ptr noundef nonnull align 8 dereferenceable(24) %2, ptr noundef nonnull align 8 dereferenceable(24) %3, i32 noundef %4, i32 noundef %5, ptr noundef nonnull align 8 dereferenceable(24) %6)
  ret i64 %26
}